target datalayout = "e-m:e-p270:32:32-p271:32:32-p272:64:64-i64:64-i128:128-f80:128-n8:16:32:64-S128"
target triple = "x86_64-pc-linux-gnu"

%"class.absl::lts_20240722::log_internal::Voidify" = type { i8 }
%"class.absl::lts_20240722::log_internal::LogMessage" = type { %"class.absl::lts_20240722::base_internal::ErrnoSaver", %"class.std::unique_ptr" }
%"class.absl::lts_20240722::base_internal::ErrnoSaver" = type { i32 }
%"class.std::unique_ptr" = type { %"struct.std::__uniq_ptr_data" }
%"struct.std::__uniq_ptr_data" = type { %"class.std::__uniq_ptr_impl" }
%"class.std::__uniq_ptr_impl" = type { %"class.std::tuple" }
%"class.std::tuple" = type { %"struct.std::_Tuple_impl" }
%"struct.std::_Tuple_impl" = type { %"struct.std::_Head_base.1" }
%"struct.std::_Head_base.1" = type { ptr }
%"class.std::basic_string_view" = type { i64, ptr }
%"class.absl::lts_20240722::log_internal::LogMessageFatal" = type { %"class.absl::lts_20240722::log_internal::LogMessage" }
%struct.tsi_ssl_handshaker_factory = type { ptr, %struct.gpr_refcount }
%struct.gpr_refcount = type { i64 }
%"class.std::__cxx11::basic_string" = type { %"struct.std::__cxx11::basic_string<char>::_Alloc_hider", i64, %union.anon }
%"struct.std::__cxx11::basic_string<char>::_Alloc_hider" = type { ptr }
%union.anon = type { i64, [8 x i8] }

@.str.1 = private unnamed_addr constant [126 x i8] c"generated/home/dtcxzyw/WorkSpace/Projects/compilers/llvm-opt-benchmark/bench/grpc/grpc/src/core/tsi/ssl_transport_security.cc\00", align 1
@.str.19 = private unnamed_addr constant [19 x i8] c"factory != nullptr\00", align 1
@.str.20 = private unnamed_addr constant [27 x i8] c"factory->vtable != nullptr\00", align 1

; Function Attrs: mustprogress nounwind uwtable
define available_externally noundef ptr @_ZNKSt7__cxx1112basic_stringIcSt11char_traitsIcESaIcEE7_M_dataEv(ptr noundef nonnull align 8 dereferenceable(32) %0) #7 align 2 {
  %2 = alloca ptr, align 8
  store ptr %0, ptr %2, align 8, !tbaa !24
  %3 = load ptr, ptr %2, align 8
  %4 = getelementptr inbounds nuw %"class.std::__cxx11::basic_string", ptr %3, i32 0, i32 0
  %5 = getelementptr inbounds nuw %"struct.std::__cxx11::basic_string<char>::_Alloc_hider", ptr %4, i32 0, i32 0
  %6 = load ptr, ptr %5, align 8, !tbaa !253
  ret ptr %6
}

; Function Attrs: mustprogress nounwind uwtable
define linkonce_odr void @_ZNSt17basic_string_viewIcSt11char_traitsIcEEC2EPKcm(ptr noundef nonnull align 8 dereferenceable(16) %0, ptr noundef %1, i64 noundef %2) unnamed_addr #7 comdat align 2 {
  %4 = alloca ptr, align 8
  %5 = alloca ptr, align 8
  %6 = alloca i64, align 8
  store ptr %0, ptr %4, align 8, !tbaa !163
  store ptr %1, ptr %5, align 8, !tbaa !3
  store i64 %2, ptr %6, align 8, !tbaa !26
  %7 = load ptr, ptr %4, align 8
  %8 = getelementptr inbounds nuw %"class.std::basic_string_view", ptr %7, i32 0, i32 0
  %9 = load i64, ptr %6, align 8, !tbaa !26
  store i64 %9, ptr %8, align 8, !tbaa !165
  %10 = getelementptr inbounds nuw %"class.std::basic_string_view", ptr %7, i32 0, i32 1
  %11 = load ptr, ptr %5, align 8, !tbaa !3
  store ptr %11, ptr %10, align 8, !tbaa !167
  ret void
}

; Function Attrs: mustprogress nounwind uwtable
define available_externally noundef i64 @_ZNKSt7__cxx1112basic_stringIcSt11char_traitsIcESaIcEE4sizeEv(ptr noundef nonnull align 8 dereferenceable(32) %0) #7 align 2 {
  %2 = alloca ptr, align 8
  store ptr %0, ptr %2, align 8, !tbaa !24
  %3 = load ptr, ptr %2, align 8
  %4 = getelementptr inbounds nuw %"class.std::__cxx11::basic_string", ptr %3, i32 0, i32 1
  %5 = load i64, ptr %4, align 8, !tbaa !251
  ret i64 %5
}

; Function Attrs: mustprogress nounwind uwtable
define available_externally noundef ptr @_ZNKSt7__cxx1112basic_stringIcSt11char_traitsIcESaIcEE4dataEv(ptr noundef nonnull align 8 dereferenceable(32) %0) #7 align 2 {
  %2 = alloca ptr, align 8
  store ptr %0, ptr %2, align 8, !tbaa !24
  %3 = load ptr, ptr %2, align 8
  %4 = call noundef ptr @_ZNKSt7__cxx1112basic_stringIcSt11char_traitsIcESaIcEE7_M_dataEv(ptr noundef nonnull align 8 dereferenceable(32) %3)
  ret ptr %4
}

; Function Attrs: inlinehint mustprogress uwtable
define linkonce_odr noundef ptr @_ZN4absl12lts_2024072212log_internal12Check_NEImplIPK33tsi_ssl_handshaker_factory_vtableDnEEPNSt7__cxx1112basic_stringIcSt11char_traitsIcESaIcEEERKT_RKT0_PKc(ptr noundef nonnull align 8 dereferenceable(8) %0, ptr noundef nonnull align 8 dereferenceable(8) %1, ptr noundef %2) #10 comdat {
  %4 = alloca ptr, align 8
  %5 = alloca ptr, align 8
  %6 = alloca ptr, align 8
  store ptr %0, ptr %4, align 8, !tbaa !218
  store ptr %1, ptr %5, align 8, !tbaa !216
  store ptr %2, ptr %6, align 8, !tbaa !3
  %7 = load ptr, ptr %4, align 8, !tbaa !218
  %8 = load ptr, ptr %7, align 8, !tbaa !213
  %9 = icmp ne ptr %8, null
  %10 = zext i1 %9 to i64
  %11 = call i64 @llvm.expect.i64(i64 %10, i64 1)
  %12 = icmp ne i64 %11, 0
  br i1 %12, label %13, label %14

13:                                               ; preds = %3
  br label %19

14:                                               ; preds = %3
  %15 = load ptr, ptr %4, align 8, !tbaa !218
  %16 = load ptr, ptr %15, align 8, !tbaa !213
  %17 = load ptr, ptr %6, align 8, !tbaa !3
  %18 = call noundef nonnull ptr @_ZN4absl12lts_2024072212log_internal17MakeCheckOpStringIPKvS4_EEPNSt7__cxx1112basic_stringIcSt11char_traitsIcESaIcEEET_T0_PKc(ptr noundef %16, ptr noundef null, ptr noundef %17)
  br label %19

19:                                               ; preds = %14, %13
  %20 = phi ptr [ null, %13 ], [ %18, %14 ]
  ret ptr %20
}

; Function Attrs: inlinehint mustprogress nounwind uwtable
define linkonce_odr noundef nonnull align 8 dereferenceable(8) ptr @_ZN4absl12lts_2024072212log_internal21GetReferenceableValueIPK33tsi_ssl_handshaker_factory_vtableEERKT_S8_(ptr noundef nonnull align 8 dereferenceable(8) %0) #11 comdat {
  %2 = alloca ptr, align 8
  store ptr %0, ptr %2, align 8, !tbaa !218
  %3 = load ptr, ptr %2, align 8, !tbaa !218
  ret ptr %3
}

; Function Attrs: mustprogress nounwind uwtable
define linkonce_odr void @_ZNKO4absl12lts_2024072212log_internal7VoidifyaaINS1_10LogMessageEEEvRKT_(ptr noundef nonnull align 1 dereferenceable(1) %0, ptr noundef nonnull align 8 dereferenceable(16) %1) #7 comdat align 2 {
  %3 = alloca ptr, align 8
  %4 = alloca ptr, align 8
  store ptr %0, ptr %3, align 8, !tbaa !16
  store ptr %1, ptr %4, align 8, !tbaa !18
  ret void
}

; Function Attrs: mustprogress nounwind uwtable
define linkonce_odr noundef nonnull align 8 dereferenceable(16) ptr @_ZN4absl12lts_2024072212log_internal10LogMessage14InternalStreamEv(ptr noundef nonnull align 8 dereferenceable(16) %0) #7 comdat align 2 {
  %2 = alloca ptr, align 8
  store ptr %0, ptr %2, align 8, !tbaa !18
  %3 = load ptr, ptr %2, align 8
  ret ptr %3
}

; Function Attrs: mustprogress nounwind uwtable
define available_externally { i64, ptr } @_ZNKSt7__cxx1112basic_stringIcSt11char_traitsIcESaIcEEcvSt17basic_string_viewIcS2_EEv(ptr noundef nonnull align 8 dereferenceable(32) %0) #7 align 2 {
  %2 = alloca %"class.std::basic_string_view", align 8
  %3 = alloca ptr, align 8
  store ptr %0, ptr %3, align 8, !tbaa !24
  %4 = load ptr, ptr %3, align 8
  %5 = call noundef ptr @_ZNKSt7__cxx1112basic_stringIcSt11char_traitsIcESaIcEE4dataEv(ptr noundef nonnull align 8 dereferenceable(32) %4) #3
  %6 = call noundef i64 @_ZNKSt7__cxx1112basic_stringIcSt11char_traitsIcESaIcEE4sizeEv(ptr noundef nonnull align 8 dereferenceable(32) %4) #3
  call void @_ZNSt17basic_string_viewIcSt11char_traitsIcEEC2EPKcm(ptr noundef nonnull align 8 dereferenceable(16) %2, ptr noundef %5, i64 noundef %6) #3
  %7 = load { i64, ptr }, ptr %2, align 8
  ret { i64, ptr } %7
}

; Function Attrs: inlinehint mustprogress uwtable
define linkonce_odr noundef ptr @_ZN4absl12lts_2024072212log_internal12Check_NEImplIP26tsi_ssl_handshaker_factoryDnEEPNSt7__cxx1112basic_stringIcSt11char_traitsIcESaIcEEERKT_RKT0_PKc(ptr noundef nonnull align 8 dereferenceable(8) %0, ptr noundef nonnull align 8 dereferenceable(8) %1, ptr noundef %2) #10 comdat {
  %4 = alloca ptr, align 8
  %5 = alloca ptr, align 8
  %6 = alloca ptr, align 8
  store ptr %0, ptr %4, align 8, !tbaa !214
  store ptr %1, ptr %5, align 8, !tbaa !216
  store ptr %2, ptr %6, align 8, !tbaa !3
  %7 = load ptr, ptr %4, align 8, !tbaa !214
  %8 = load ptr, ptr %7, align 8, !tbaa !84
  %9 = icmp ne ptr %8, null
  %10 = zext i1 %9 to i64
  %11 = call i64 @llvm.expect.i64(i64 %10, i64 1)
  %12 = icmp ne i64 %11, 0
  br i1 %12, label %13, label %14

13:                                               ; preds = %3
  br label %19

14:                                               ; preds = %3
  %15 = load ptr, ptr %4, align 8, !tbaa !214
  %16 = load ptr, ptr %15, align 8, !tbaa !84
  %17 = load ptr, ptr %6, align 8, !tbaa !3
  %18 = call noundef nonnull ptr @_ZN4absl12lts_2024072212log_internal17MakeCheckOpStringIPKvS4_EEPNSt7__cxx1112basic_stringIcSt11char_traitsIcESaIcEEET_T0_PKc(ptr noundef %16, ptr noundef null, ptr noundef %17)
  br label %19

19:                                               ; preds = %14, %13
  %20 = phi ptr [ null, %13 ], [ %18, %14 ]
  ret ptr %20
}

; Function Attrs: inlinehint mustprogress nounwind uwtable
define linkonce_odr noundef nonnull align 8 dereferenceable(8) ptr @_ZN4absl12lts_2024072212log_internal21GetReferenceableValueIDnEERKT_S5_(ptr noundef nonnull align 8 dereferenceable(8) %0) #11 comdat {
  %2 = alloca ptr, align 8
  store ptr %0, ptr %2, align 8, !tbaa !216
  %3 = load ptr, ptr %2, align 8, !tbaa !216
  ret ptr %3
}

; Function Attrs: inlinehint mustprogress nounwind uwtable
define linkonce_odr noundef nonnull align 8 dereferenceable(8) ptr @_ZN4absl12lts_2024072212log_internal21GetReferenceableValueIP26tsi_ssl_handshaker_factoryEERKT_S7_(ptr noundef nonnull align 8 dereferenceable(8) %0) #11 comdat {
  %2 = alloca ptr, align 8
  store ptr %0, ptr %2, align 8, !tbaa !214
  %3 = load ptr, ptr %2, align 8, !tbaa !214
  ret ptr %3
}

; Function Attrs: mustprogress uwtable
define noundef ptr @_Z38tsi_ssl_handshaker_factory_swap_vtableP26tsi_ssl_handshaker_factoryP33tsi_ssl_handshaker_factory_vtable(ptr noundef %0, ptr noundef %1) #4 personality ptr @__gxx_personality_v0 {
  %3 = alloca ptr, align 8
  %4 = alloca ptr, align 8
  %5 = alloca ptr, align 8
  %6 = alloca ptr, align 8
  %7 = alloca %"class.absl::lts_20240722::log_internal::Voidify", align 1
  %8 = alloca %"class.absl::lts_20240722::log_internal::LogMessageFatal", align 8
  %9 = alloca %"class.std::basic_string_view", align 8
  %10 = alloca ptr, align 8
  %11 = alloca i32, align 4
  %12 = alloca ptr, align 8
  %13 = alloca ptr, align 8
  %14 = alloca %"class.absl::lts_20240722::log_internal::Voidify", align 1
  %15 = alloca %"class.absl::lts_20240722::log_internal::LogMessageFatal", align 8
  %16 = alloca %"class.std::basic_string_view", align 8
  %17 = alloca ptr, align 8
  store ptr %0, ptr %3, align 8, !tbaa !84
  store ptr %1, ptr %4, align 8, !tbaa !213
  br label %18

18:                                               ; preds = %2
  call void @llvm.lifetime.start.p0(i64 8, ptr %5) #3
  %19 = call noundef nonnull align 8 dereferenceable(8) ptr @_ZN4absl12lts_2024072212log_internal21GetReferenceableValueIP26tsi_ssl_handshaker_factoryEERKT_S7_(ptr noundef nonnull align 8 dereferenceable(8) %3)
  call void @llvm.lifetime.start.p0(i64 8, ptr %6) #3
  store ptr null, ptr %6, align 8, !tbaa !56
  %20 = call noundef nonnull align 8 dereferenceable(8) ptr @_ZN4absl12lts_2024072212log_internal21GetReferenceableValueIDnEERKT_S5_(ptr noundef nonnull align 8 dereferenceable(8) %6)
  %21 = call noundef ptr @_ZN4absl12lts_2024072212log_internal12Check_NEImplIP26tsi_ssl_handshaker_factoryDnEEPNSt7__cxx1112basic_stringIcSt11char_traitsIcESaIcEEERKT_RKT0_PKc(ptr noundef nonnull align 8 dereferenceable(8) %19, ptr noundef nonnull align 8 dereferenceable(8) %20, ptr noundef @.str.19)
  call void @llvm.lifetime.end.p0(i64 8, ptr %6) #3
  store ptr %21, ptr %5, align 8, !tbaa !24
  %22 = load ptr, ptr %5, align 8, !tbaa !24
  %23 = icmp ne ptr %22, null
  br i1 %23, label %25, label %24

24:                                               ; preds = %18
  call void @llvm.lifetime.end.p0(i64 8, ptr %5) #3
  br label %44

25:                                               ; preds = %18
  call void @llvm.lifetime.start.p0(i64 1, ptr %7) #3
  call void @llvm.lifetime.start.p0(i64 16, ptr %8) #3
  %26 = load ptr, ptr %5, align 8, !tbaa !24
  %27 = call { i64, ptr } @_ZNKSt7__cxx1112basic_stringIcSt11char_traitsIcESaIcEEcvSt17basic_string_viewIcS2_EEv(ptr noundef nonnull align 8 dereferenceable(32) %26) #3
  %28 = getelementptr inbounds nuw { i64, ptr }, ptr %9, i32 0, i32 0
  %29 = extractvalue { i64, ptr } %27, 0
  store i64 %29, ptr %28, align 8
  %30 = getelementptr inbounds nuw { i64, ptr }, ptr %9, i32 0, i32 1
  %31 = extractvalue { i64, ptr } %27, 1
  store ptr %31, ptr %30, align 8
  %32 = getelementptr inbounds nuw { i64, ptr }, ptr %9, i32 0, i32 0
  %33 = load i64, ptr %32, align 8
  %34 = getelementptr inbounds nuw { i64, ptr }, ptr %9, i32 0, i32 1
  %35 = load ptr, ptr %34, align 8
  call void @_ZN4absl12lts_2024072212log_internal15LogMessageFatalC1EPKciSt17basic_string_viewIcSt11char_traitsIcEE(ptr noundef nonnull align 8 dereferenceable(16) %8, ptr noundef @.str.1, i32 noundef 2657, i64 %33, ptr %35) #27
  %36 = invoke noundef nonnull align 8 dereferenceable(16) ptr @_ZN4absl12lts_2024072212log_internal10LogMessage14InternalStreamEv(ptr noundef nonnull align 8 dereferenceable(16) %8)
          to label %37 unwind label %39

37:                                               ; preds = %25
  invoke void @_ZNKO4absl12lts_2024072212log_internal7VoidifyaaINS1_10LogMessageEEEvRKT_(ptr noundef nonnull align 1 dereferenceable(1) %7, ptr noundef nonnull align 8 dereferenceable(16) %36)
          to label %38 unwind label %39

38:                                               ; preds = %37
  call void @_ZN4absl12lts_2024072212log_internal15LogMessageFatalD1Ev(ptr noundef nonnull align 8 dereferenceable(16) %8) #29
  unreachable

39:                                               ; preds = %37, %25
  %40 = landingpad { ptr, i32 }
          cleanup
  %41 = extractvalue { ptr, i32 } %40, 0
  store ptr %41, ptr %10, align 8
  %42 = extractvalue { ptr, i32 } %40, 1
  store i32 %42, ptr %11, align 4
  call void @_ZN4absl12lts_2024072212log_internal15LogMessageFatalD1Ev(ptr noundef nonnull align 8 dereferenceable(16) %8) #29
  unreachable

43:                                               ; No predecessors!
  call void @llvm.lifetime.end.p0(i64 16, ptr %8) #3
  call void @llvm.lifetime.end.p0(i64 1, ptr %7) #3
  call void @llvm.lifetime.end.p0(i64 8, ptr %5) #3
  br label %81

44:                                               ; preds = %24
  br label %45

45:                                               ; preds = %44
  call void @llvm.lifetime.start.p0(i64 8, ptr %12) #3
  %46 = load ptr, ptr %3, align 8, !tbaa !84
  %47 = getelementptr inbounds nuw %struct.tsi_ssl_handshaker_factory, ptr %46, i32 0, i32 0
  %48 = call noundef nonnull align 8 dereferenceable(8) ptr @_ZN4absl12lts_2024072212log_internal21GetReferenceableValueIPK33tsi_ssl_handshaker_factory_vtableEERKT_S8_(ptr noundef nonnull align 8 dereferenceable(8) %47)
  call void @llvm.lifetime.start.p0(i64 8, ptr %13) #3
  store ptr null, ptr %13, align 8, !tbaa !56
  %49 = call noundef nonnull align 8 dereferenceable(8) ptr @_ZN4absl12lts_2024072212log_internal21GetReferenceableValueIDnEERKT_S5_(ptr noundef nonnull align 8 dereferenceable(8) %13)
  %50 = call noundef ptr @_ZN4absl12lts_2024072212log_internal12Check_NEImplIPK33tsi_ssl_handshaker_factory_vtableDnEEPNSt7__cxx1112basic_stringIcSt11char_traitsIcESaIcEEERKT_RKT0_PKc(ptr noundef nonnull align 8 dereferenceable(8) %48, ptr noundef nonnull align 8 dereferenceable(8) %49, ptr noundef @.str.20)
  call void @llvm.lifetime.end.p0(i64 8, ptr %13) #3
  store ptr %50, ptr %12, align 8, !tbaa !24
  %51 = load ptr, ptr %12, align 8, !tbaa !24
  %52 = icmp ne ptr %51, null
  br i1 %52, label %54, label %53

53:                                               ; preds = %45
  call void @llvm.lifetime.end.p0(i64 8, ptr %12) #3
  br label %73

54:                                               ; preds = %45
  call void @llvm.lifetime.start.p0(i64 1, ptr %14) #3
  call void @llvm.lifetime.start.p0(i64 16, ptr %15) #3
  %55 = load ptr, ptr %12, align 8, !tbaa !24
  %56 = call { i64, ptr } @_ZNKSt7__cxx1112basic_stringIcSt11char_traitsIcESaIcEEcvSt17basic_string_viewIcS2_EEv(ptr noundef nonnull align 8 dereferenceable(32) %55) #3
  %57 = getelementptr inbounds nuw { i64, ptr }, ptr %16, i32 0, i32 0
  %58 = extractvalue { i64, ptr } %56, 0
  store i64 %58, ptr %57, align 8
  %59 = getelementptr inbounds nuw { i64, ptr }, ptr %16, i32 0, i32 1
  %60 = extractvalue { i64, ptr } %56, 1
  store ptr %60, ptr %59, align 8
  %61 = getelementptr inbounds nuw { i64, ptr }, ptr %16, i32 0, i32 0
  %62 = load i64, ptr %61, align 8
  %63 = getelementptr inbounds nuw { i64, ptr }, ptr %16, i32 0, i32 1
  %64 = load ptr, ptr %63, align 8
  call void @_ZN4absl12lts_2024072212log_internal15LogMessageFatalC1EPKciSt17basic_string_viewIcSt11char_traitsIcEE(ptr noundef nonnull align 8 dereferenceable(16) %15, ptr noundef @.str.1, i32 noundef 2658, i64 %62, ptr %64) #27
  %65 = invoke noundef nonnull align 8 dereferenceable(16) ptr @_ZN4absl12lts_2024072212log_internal10LogMessage14InternalStreamEv(ptr noundef nonnull align 8 dereferenceable(16) %15)
          to label %66 unwind label %68

66:                                               ; preds = %54
  invoke void @_ZNKO4absl12lts_2024072212log_internal7VoidifyaaINS1_10LogMessageEEEvRKT_(ptr noundef nonnull align 1 dereferenceable(1) %14, ptr noundef nonnull align 8 dereferenceable(16) %65)
          to label %67 unwind label %68

67:                                               ; preds = %66
  call void @_ZN4absl12lts_2024072212log_internal15LogMessageFatalD1Ev(ptr noundef nonnull align 8 dereferenceable(16) %15) #29
  unreachable

68:                                               ; preds = %66, %54
  %69 = landingpad { ptr, i32 }
          cleanup
  %70 = extractvalue { ptr, i32 } %69, 0
  store ptr %70, ptr %10, align 8
  %71 = extractvalue { ptr, i32 } %69, 1
  store i32 %71, ptr %11, align 4
  call void @_ZN4absl12lts_2024072212log_internal15LogMessageFatalD1Ev(ptr noundef nonnull align 8 dereferenceable(16) %15) #29
  unreachable

72:                                               ; No predecessors!
  call void @llvm.lifetime.end.p0(i64 16, ptr %15) #3
  call void @llvm.lifetime.end.p0(i64 1, ptr %14) #3
  call void @llvm.lifetime.end.p0(i64 8, ptr %12) #3
  br label %81

73:                                               ; preds = %53
  call void @llvm.lifetime.start.p0(i64 8, ptr %17) #3
  %74 = load ptr, ptr %3, align 8, !tbaa !84
  %75 = getelementptr inbounds nuw %struct.tsi_ssl_handshaker_factory, ptr %74, i32 0, i32 0
  %76 = load ptr, ptr %75, align 8, !tbaa !144
  store ptr %76, ptr %17, align 8, !tbaa !213
  %77 = load ptr, ptr %4, align 8, !tbaa !213
  %78 = load ptr, ptr %3, align 8, !tbaa !84
  %79 = getelementptr inbounds nuw %struct.tsi_ssl_handshaker_factory, ptr %78, i32 0, i32 0
  store ptr %77, ptr %79, align 8, !tbaa !144
  %80 = load ptr, ptr %17, align 8, !tbaa !213
  call void @llvm.lifetime.end.p0(i64 8, ptr %17) #3
  ret ptr %80

81:                                               ; preds = %72, %43
  %82 = load ptr, ptr %10, align 8
  %83 = load i32, ptr %11, align 4
  %84 = insertvalue { ptr, i32 } poison, ptr %82, 0
  %85 = insertvalue { ptr, i32 } %84, i32 %83, 1
  resume { ptr, i32 } %85
}