; Function Attrs: mustprogress uwtable
define noundef ptr @_Z38tsi_ssl_handshaker_factory_swap_vtableP26tsi_ssl_handshaker_factoryP33tsi_ssl_handshaker_factory_vtable(ptr noundef %0, ptr noundef %1) local_unnamed_addr #3 personality ptr @__gxx_personality_v0 {
  %3 = alloca %"class.absl::lts_20240722::log_internal::LogMessageFatal", align 8
  %4 = alloca %"class.absl::lts_20240722::log_internal::LogMessageFatal", align 8
  %.not.i = icmp eq ptr %0, null
  br i1 %.not.i, label %7, label %5, !prof !28

5:                                                ; preds = %2
  %6 = load ptr, ptr %0, align 8, !tbaa !193
  %.not.i10 = icmp eq ptr %6, null
  br i1 %.not.i10, label %13, label %12, !prof !28

7:                                                ; preds = %2
  %8 = tail call noundef nonnull ptr @_ZN4absl12lts_2024072212log_internal17MakeCheckOpStringIPKvS4_EEPNSt7__cxx1112basic_stringIcSt11char_traitsIcESaIcEEET_T0_PKc(ptr noundef null, ptr noundef null, ptr noundef nonnull @.str.19)
  call void @llvm.lifetime.start.p0(i64 16, ptr nonnull %3) #32
  %9 = load ptr, ptr %8, align 8, !tbaa !4
  %10 = getelementptr inbounds nuw i8, ptr %8, i64 8
  %11 = load i64, ptr %10, align 8, !tbaa !12
  call void @_ZN4absl12lts_2024072212log_internal15LogMessageFatalC1EPKciSt17basic_string_viewIcSt11char_traitsIcEE(ptr noundef nonnull align 8 dereferenceable(16) %3, ptr noundef nonnull @.str.1, i32 noundef 2657, i64 %11, ptr %9) #33
  call void @_ZN4absl12lts_2024072212log_internal15LogMessageFatalD1Ev(ptr noundef nonnull align 8 dereferenceable(16) %3) #35
  unreachable

12:                                               ; preds = %5
  store ptr %1, ptr %0, align 8, !tbaa !76
  ret ptr %6

13:                                               ; preds = %5
  %14 = tail call noundef nonnull ptr @_ZN4absl12lts_2024072212log_internal17MakeCheckOpStringIPKvS4_EEPNSt7__cxx1112basic_stringIcSt11char_traitsIcESaIcEEET_T0_PKc(ptr noundef null, ptr noundef null, ptr noundef nonnull @.str.20)
  call void @llvm.lifetime.start.p0(i64 16, ptr nonnull %4) #32
  %15 = load ptr, ptr %14, align 8, !tbaa !4
  %16 = getelementptr inbounds nuw i8, ptr %14, i64 8
  %17 = load i64, ptr %16, align 8, !tbaa !12
  call void @_ZN4absl12lts_2024072212log_internal15LogMessageFatalC1EPKciSt17basic_string_viewIcSt11char_traitsIcEE(ptr noundef nonnull align 8 dereferenceable(16) %4, ptr noundef nonnull @.str.1, i32 noundef 2658, i64 %17, ptr %15) #33
  call void @_ZN4absl12lts_2024072212log_internal15LogMessageFatalD1Ev(ptr noundef nonnull align 8 dereferenceable(16) %4) #35
  unreachable
}